target datalayout = "e-m:e-p270:32:32-p271:32:32-p272:64:64-i64:64-i128:128-f80:128-n8:16:32:64-S128"
target triple = "x86_64-pc-linux-gnu"

%struct.EVP_ARIA_KEY = type { %struct.aria_key_st }
%struct.aria_key_st = type { [17 x %union.ARIA_u128], i32 }
%union.ARIA_u128 = type { [4 x i32] }
%struct.evp_cipher_ctx_st = type { ptr, ptr, i32, i32, [16 x i8], [16 x i8], [32 x i8], i32, ptr, i32, i32, i64, ptr, i32, i32, [32 x i8], i64, ptr, ptr }

; Function Attrs: nounwind uwtable
define internal void @aria_cfb8_encrypt(ptr noundef %0, ptr noundef %1, i64 noundef %2, ptr noundef %3, ptr noundef %4, ptr noundef %5, i32 noundef %6) #0 {
  %8 = alloca ptr, align 8
  %9 = alloca ptr, align 8
  %10 = alloca i64, align 8
  %11 = alloca ptr, align 8
  %12 = alloca ptr, align 8
  %13 = alloca ptr, align 8
  %14 = alloca i32, align 4
  store ptr %0, ptr %8, align 8, !tbaa !8
  store ptr %1, ptr %9, align 8, !tbaa !8
  store i64 %2, ptr %10, align 8, !tbaa !12
  store ptr %3, ptr %11, align 8, !tbaa !16
  store ptr %4, ptr %12, align 8, !tbaa !8
  store ptr %5, ptr %13, align 8, !tbaa !19
  store i32 %6, ptr %14, align 4, !tbaa !10
  %15 = load ptr, ptr %8, align 8, !tbaa !8
  %16 = load ptr, ptr %9, align 8, !tbaa !8
  %17 = load i64, ptr %10, align 8, !tbaa !12
  %18 = load ptr, ptr %11, align 8, !tbaa !16
  %19 = load ptr, ptr %12, align 8, !tbaa !8
  %20 = load ptr, ptr %13, align 8, !tbaa !19
  %21 = load i32, ptr %14, align 4, !tbaa !10
  call void @CRYPTO_cfb128_8_encrypt(ptr noundef %15, ptr noundef %16, i64 noundef %17, ptr noundef %18, ptr noundef %19, ptr noundef %20, i32 noundef %21, ptr noundef @ossl_aria_encrypt)
  ret void
}

; Function Attrs: nounwind uwtable
define internal i32 @aria_128_cfb8_cipher(ptr noundef %0, ptr noundef %1, ptr noundef %2, i64 noundef %3) #0 {
  %5 = alloca ptr, align 8
  %6 = alloca ptr, align 8
  %7 = alloca ptr, align 8
  %8 = alloca i64, align 8
  %9 = alloca i64, align 8
  %10 = alloca i32, align 4
  store ptr %0, ptr %5, align 8, !tbaa !3
  store ptr %1, ptr %6, align 8, !tbaa !8
  store ptr %2, ptr %7, align 8, !tbaa !8
  store i64 %3, ptr %8, align 8, !tbaa !12
  call void @llvm.lifetime.start.p0(i64 8, ptr %9) #4
  store i64 1073741824, ptr %9, align 8, !tbaa !12
  %11 = load i64, ptr %8, align 8, !tbaa !12
  %12 = load i64, ptr %9, align 8, !tbaa !12
  %13 = icmp ult i64 %11, %12
  br i1 %13, label %14, label %16

14:                                               ; preds = %4
  %15 = load i64, ptr %8, align 8, !tbaa !12
  store i64 %15, ptr %9, align 8, !tbaa !12
  br label %16

16:                                               ; preds = %14, %4
  br label %17

17:                                               ; preds = %57, %16
  %18 = load i64, ptr %8, align 8, !tbaa !12
  %19 = icmp ne i64 %18, 0
  br i1 %19, label %20, label %24

20:                                               ; preds = %17
  %21 = load i64, ptr %8, align 8, !tbaa !12
  %22 = load i64, ptr %9, align 8, !tbaa !12
  %23 = icmp uge i64 %21, %22
  br label %24

24:                                               ; preds = %20, %17
  %25 = phi i1 [ false, %17 ], [ %23, %20 ]
  br i1 %25, label %26, label %58

26:                                               ; preds = %24
  call void @llvm.lifetime.start.p0(i64 4, ptr %10) #4
  %27 = load ptr, ptr %5, align 8, !tbaa !3
  %28 = call i32 @EVP_CIPHER_CTX_get_num(ptr noundef %27)
  store i32 %28, ptr %10, align 4, !tbaa !10
  %29 = load ptr, ptr %7, align 8, !tbaa !8
  %30 = load ptr, ptr %6, align 8, !tbaa !8
  %31 = load i64, ptr %9, align 8, !tbaa !12
  %32 = load ptr, ptr %5, align 8, !tbaa !3
  %33 = call ptr @EVP_CIPHER_CTX_get_cipher_data(ptr noundef %32)
  %34 = getelementptr inbounds nuw %struct.EVP_ARIA_KEY, ptr %33, i32 0, i32 0
  %35 = load ptr, ptr %5, align 8, !tbaa !3
  %36 = getelementptr inbounds nuw %struct.evp_cipher_ctx_st, ptr %35, i32 0, i32 5
  %37 = getelementptr inbounds [16 x i8], ptr %36, i64 0, i64 0
  %38 = load ptr, ptr %5, align 8, !tbaa !3
  %39 = call i32 @EVP_CIPHER_CTX_is_encrypting(ptr noundef %38)
  call void @aria_cfb8_encrypt(ptr noundef %29, ptr noundef %30, i64 noundef %31, ptr noundef %34, ptr noundef %37, ptr noundef %10, i32 noundef %39)
  %40 = load ptr, ptr %5, align 8, !tbaa !3
  %41 = load i32, ptr %10, align 4, !tbaa !10
  %42 = call i32 @EVP_CIPHER_CTX_set_num(ptr noundef %40, i32 noundef %41)
  %43 = load i64, ptr %9, align 8, !tbaa !12
  %44 = load i64, ptr %8, align 8, !tbaa !12
  %45 = sub i64 %44, %43
  store i64 %45, ptr %8, align 8, !tbaa !12
  %46 = load i64, ptr %9, align 8, !tbaa !12
  %47 = load ptr, ptr %7, align 8, !tbaa !8
  %48 = getelementptr inbounds nuw i8, ptr %47, i64 %46
  store ptr %48, ptr %7, align 8, !tbaa !8
  %49 = load i64, ptr %9, align 8, !tbaa !12
  %50 = load ptr, ptr %6, align 8, !tbaa !8
  %51 = getelementptr inbounds nuw i8, ptr %50, i64 %49
  store ptr %51, ptr %6, align 8, !tbaa !8
  %52 = load i64, ptr %8, align 8, !tbaa !12
  %53 = load i64, ptr %9, align 8, !tbaa !12
  %54 = icmp ult i64 %52, %53
  br i1 %54, label %55, label %57

55:                                               ; preds = %26
  %56 = load i64, ptr %8, align 8, !tbaa !12
  store i64 %56, ptr %9, align 8, !tbaa !12
  br label %57

57:                                               ; preds = %55, %26
  call void @llvm.lifetime.end.p0(i64 4, ptr %10) #4
  br label %17, !llvm.loop !38

58:                                               ; preds = %24
  call void @llvm.lifetime.end.p0(i64 8, ptr %9) #4
  ret i32 1
}